target datalayout = "e-m:e-p270:32:32-p271:32:32-p272:64:64-i64:64-i128:128-f80:128-n8:16:32:64-S128"
target triple = "x86_64-unknown-linux-gnu"

%"struct.std::pair" = type <{ ptr, i32, [4 x i8] }>
%class.statistics = type { %class.svector, %class.svector.0 }
%class.svector = type { %class.vector }
%class.vector = type { ptr }
%class.svector.0 = type { %class.vector.1 }
%class.vector.1 = type { ptr }
%"struct.std::pair.2" = type { ptr, double }

; Function Attrs: mustprogress nounwind uwtable
define linkonce_odr hidden noundef nonnull align 8 dereferenceable(16) ptr @_ZNK6vectorISt4pairIPKcdELb0EjEixEj(ptr noundef nonnull align 8 dereferenceable(8) %this, i32 noundef %idx) #5 comdat align 2 {
entry:
  %this.addr = alloca ptr, align 8
  %idx.addr = alloca i32, align 4
  store ptr %this, ptr %this.addr, align 8
  store i32 %idx, ptr %idx.addr, align 4
  %this1 = load ptr, ptr %this.addr, align 8
  %m_data = getelementptr inbounds %class.vector.1, ptr %this1, i32 0, i32 0
  %0 = load ptr, ptr %m_data, align 8
  %1 = load i32, ptr %idx.addr, align 4
  %idxprom = zext i32 %1 to i64
  %arrayidx = getelementptr inbounds %"struct.std::pair.2", ptr %0, i64 %idxprom
  ret ptr %arrayidx
}

; Function Attrs: mustprogress nounwind uwtable
define linkonce_odr hidden noundef i32 @_ZNK6vectorISt4pairIPKcjELb0EjE4sizeEv(ptr noundef nonnull align 8 dereferenceable(8) %this) #5 comdat align 2 {
entry:
  %retval = alloca i32, align 4
  %this.addr = alloca ptr, align 8
  store ptr %this, ptr %this.addr, align 8
  %this1 = load ptr, ptr %this.addr, align 8
  %m_data = getelementptr inbounds %class.vector, ptr %this1, i32 0, i32 0
  %0 = load ptr, ptr %m_data, align 8
  %cmp = icmp eq ptr %0, null
  br i1 %cmp, label %if.then, label %if.end

if.then:                                          ; preds = %entry
  store i32 0, ptr %retval, align 4
  br label %return

if.end:                                           ; preds = %entry
  %m_data2 = getelementptr inbounds %class.vector, ptr %this1, i32 0, i32 0
  %1 = load ptr, ptr %m_data2, align 8
  %arrayidx = getelementptr inbounds i32, ptr %1, i64 -1
  %2 = load i32, ptr %arrayidx, align 4
  store i32 %2, ptr %retval, align 4
  br label %return

return:                                           ; preds = %if.end, %if.then
  %3 = load i32, ptr %retval, align 4
  ret i32 %3
}

; Function Attrs: mustprogress nounwind uwtable
define linkonce_odr hidden noundef nonnull align 8 dereferenceable(12) ptr @_ZNK6vectorISt4pairIPKcjELb0EjEixEj(ptr noundef nonnull align 8 dereferenceable(8) %this, i32 noundef %idx) #5 comdat align 2 {
entry:
  %this.addr = alloca ptr, align 8
  %idx.addr = alloca i32, align 4
  store ptr %this, ptr %this.addr, align 8
  store i32 %idx, ptr %idx.addr, align 4
  %this1 = load ptr, ptr %this.addr, align 8
  %m_data = getelementptr inbounds %class.vector, ptr %this1, i32 0, i32 0
  %0 = load ptr, ptr %m_data, align 8
  %1 = load i32, ptr %idx.addr, align 4
  %idxprom = zext i32 %1 to i64
  %arrayidx = getelementptr inbounds %"struct.std::pair", ptr %0, i64 %idxprom
  ret ptr %arrayidx
}

; Function Attrs: mustprogress uwtable
define hidden noundef zeroext i1 @_ZNK10statistics7is_uintEj(ptr noundef nonnull align 8 dereferenceable(16) %this, i32 noundef %idx) #4 align 2 {
entry:
  %this.addr = alloca ptr, align 8
  %idx.addr = alloca i32, align 4
  store ptr %this, ptr %this.addr, align 8
  store i32 %idx, ptr %idx.addr, align 4
  %this1 = load ptr, ptr %this.addr, align 8
  %0 = load i32, ptr %idx.addr, align 4
  %m_stats = getelementptr inbounds %class.statistics, ptr %this1, i32 0, i32 0
  %call = call noundef i32 @_ZNK6vectorISt4pairIPKcjELb0EjE4sizeEv(ptr noundef nonnull align 8 dereferenceable(8) %m_stats)
  %cmp = icmp ult i32 %0, %call
  ret i1 %cmp
}

; Function Attrs: mustprogress uwtable
define hidden noundef ptr @_ZNK10statistics7get_keyEj(ptr noundef nonnull align 8 dereferenceable(16) %this, i32 noundef %idx) #4 align 2 {
entry:
  %retval = alloca ptr, align 8
  %this.addr = alloca ptr, align 8
  %idx.addr = alloca i32, align 4
  store ptr %this, ptr %this.addr, align 8
  store i32 %idx, ptr %idx.addr, align 4
  %this1 = load ptr, ptr %this.addr, align 8
  %0 = load i32, ptr %idx.addr, align 4
  %call = call noundef zeroext i1 @_ZNK10statistics7is_uintEj(ptr noundef nonnull align 8 dereferenceable(16) %this1, i32 noundef %0)
  br i1 %call, label %if.then, label %if.else

if.then:                                          ; preds = %entry
  %m_stats = getelementptr inbounds %class.statistics, ptr %this1, i32 0, i32 0
  %1 = load i32, ptr %idx.addr, align 4
  %call2 = call noundef nonnull align 8 dereferenceable(12) ptr @_ZNK6vectorISt4pairIPKcjELb0EjEixEj(ptr noundef nonnull align 8 dereferenceable(8) %m_stats, i32 noundef %1)
  %first = getelementptr inbounds %"struct.std::pair", ptr %call2, i32 0, i32 0
  %2 = load ptr, ptr %first, align 8
  store ptr %2, ptr %retval, align 8
  br label %return

if.else:                                          ; preds = %entry
  %m_d_stats = getelementptr inbounds %class.statistics, ptr %this1, i32 0, i32 1
  %3 = load i32, ptr %idx.addr, align 4
  %m_stats3 = getelementptr inbounds %class.statistics, ptr %this1, i32 0, i32 0
  %call4 = call noundef i32 @_ZNK6vectorISt4pairIPKcjELb0EjE4sizeEv(ptr noundef nonnull align 8 dereferenceable(8) %m_stats3)
  %sub = sub i32 %3, %call4
  %call5 = call noundef nonnull align 8 dereferenceable(16) ptr @_ZNK6vectorISt4pairIPKcdELb0EjEixEj(ptr noundef nonnull align 8 dereferenceable(8) %m_d_stats, i32 noundef %sub)
  %first6 = getelementptr inbounds %"struct.std::pair.2", ptr %call5, i32 0, i32 0
  %4 = load ptr, ptr %first6, align 8
  store ptr %4, ptr %retval, align 8
  br label %return

return:                                           ; preds = %if.else, %if.then
  %5 = load ptr, ptr %retval, align 8
  ret ptr %5
}