; Function Attrs: mustprogress nofree norecurse nosync nounwind willreturn memory(read, inaccessiblemem: none) uwtable
define hidden noundef ptr @_ZNK10statistics7get_keyEj(ptr nocapture noundef nonnull readonly align 8 dereferenceable(16) %this, i32 noundef %idx) local_unnamed_addr #8 align 2 {
entry:
  %0 = load ptr, ptr %this, align 8
  %cmp.i.i = icmp eq ptr %0, null
  br i1 %cmp.i.i, label %_ZNK6vectorISt4pairIPKcjELb0EjE4sizeEv.exit, label %_ZNK10statistics7is_uintEj.exit

_ZNK10statistics7is_uintEj.exit:                  ; preds = %entry
  %arrayidx.i.i = getelementptr inbounds i8, ptr %0, i64 -4
  %1 = load i32, ptr %arrayidx.i.i, align 4
  %cmp.i = icmp ugt i32 %1, %idx
  br i1 %cmp.i, label %if.then, label %_ZNK6vectorISt4pairIPKcjELb0EjE4sizeEv.exit

if.then:                                          ; preds = %_ZNK10statistics7is_uintEj.exit
  %idxprom.i = zext i32 %idx to i64
  %arrayidx.i = getelementptr inbounds %"struct.std::pair", ptr %0, i64 %idxprom.i
  br label %return

_ZNK6vectorISt4pairIPKcjELb0EjE4sizeEv.exit:      ; preds = %_ZNK10statistics7is_uintEj.exit, %entry
  %retval.0.i = phi i32 [ 0, %entry ], [ %1, %_ZNK10statistics7is_uintEj.exit ]
  %m_d_stats10 = getelementptr inbounds i8, ptr %this, i64 8
  %sub = sub i32 %idx, %retval.0.i
  %2 = load ptr, ptr %m_d_stats10, align 8
  %idxprom.i5 = zext i32 %sub to i64
  %arrayidx.i6 = getelementptr inbounds %"struct.std::pair.2", ptr %2, i64 %idxprom.i5
  br label %return

return:                                           ; preds = %_ZNK6vectorISt4pairIPKcjELb0EjE4sizeEv.exit, %if.then
  %retval.0.in = phi ptr [ %arrayidx.i, %if.then ], [ %arrayidx.i6, %_ZNK6vectorISt4pairIPKcjELb0EjE4sizeEv.exit ]
  %retval.0 = load ptr, ptr %retval.0.in, align 8
  ret ptr %retval.0
}